; Function Attrs: nounwind uwtable
define ptr @l_Lean_initFn____x40_Lean_ReducibilityAttrs___hyg_186____lambda__3(ptr noundef %0) local_unnamed_addr #2 {
lean_nat_eq.exit:
  %1 = load ptr, ptr @l_Lean_initFn____x40_Lean_ReducibilityAttrs___hyg_186____lambda__3___closed__1, align 8, !tbaa !9
  %2 = tail call ptr @l_Lean_RBNode_fold___at_Lean_initFn____x40_Lean_ReducibilityAttrs___hyg_186____spec__1(ptr noundef %1, ptr noundef %0)
  %3 = getelementptr i8, ptr %2, i64 8
  %.val = load i64, ptr %3, align 8, !tbaa !16
  %4 = shl i64 %.val, 1
  %.not = icmp eq i64 %4, 0
  br i1 %.not, label %lean_dec.exit32, label %lean_nat_le.exit

lean_nat_le.exit:                                 ; preds = %lean_nat_eq.exit
  %5 = and i64 %.val, 9223372036854775807
  %6 = icmp eq i64 %5, 0
  %7 = add i64 %4, -1
  %8 = inttoptr i64 %7 to ptr
  %.1.i = select i1 %6, ptr inttoptr (i64 1 to ptr), ptr %8
  %9 = or disjoint i64 %4, 1
  %10 = inttoptr i64 %9 to ptr
  %11 = tail call ptr @l_Array_qsort_sort___at_Lean_initFn____x40_Lean_ReducibilityAttrs___hyg_186____spec__2(ptr noundef nonnull %10, ptr noundef nonnull %2, ptr noundef nonnull inttoptr (i64 1 to ptr), ptr noundef nonnull %.1.i, ptr nonnull poison, ptr nonnull poison)
  br label %lean_dec.exit32

lean_dec.exit32:                                  ; preds = %lean_nat_eq.exit, %lean_nat_le.exit
  %.1 = phi ptr [ %11, %lean_nat_le.exit ], [ %2, %lean_nat_eq.exit ]
  ret ptr %.1
}